; ModuleID = '38/605.c'
source_filename = "38/605.c"
target datalayout = "e-m:e-p270:32:32-p271:32:32-p272:64:64-i64:64-f80:128-n8:16:32:64-S128"
target triple = "x86_64-pc-linux-gnu"

@.str = private unnamed_addr constant [3 x i8] c"%d\00", align 1
@.str.1 = private unnamed_addr constant [4 x i8] c"%d\0A\00", align 1
@.str.2 = private unnamed_addr constant [3 x i8] c"%f\00", align 1
@.str.3 = private unnamed_addr constant [7 x i8] c"%.5lf\0A\00", align 1

; Function Attrs: noinline nounwind uwtable
define dso_local void @main() #0 {
  %1 = alloca i32, align 4
  %2 = alloca i32, align 4
  %3 = alloca i32, align 4
  %4 = alloca i32, align 4
  %5 = alloca float, align 4
  %6 = alloca [1000 x float], align 16
  %7 = alloca double, align 8
  %8 = alloca double, align 8
  %9 = alloca [100 x double], align 16
  %10 = alloca double, align 8
  %11 = alloca double, align 8
  %12 = call i32 (i8*, ...) @__isoc99_scanf(i8* getelementptr inbounds ([3 x i8], [3 x i8]* @.str, i64 0, i64 0), i32* %1)
  store i32 0, i32* %3, align 4
  br label %13

13:                                               ; preds = %79, %0
  %14 = load i32, i32* %3, align 4
  %15 = load i32, i32* %1, align 4
  %16 = icmp slt i32 %14, %15
  br i1 %16, label %17, label %82

17:                                               ; preds = %13
  store float 0.000000e+00, float* %5, align 4
  %18 = call i32 (i8*, ...) @__isoc99_scanf(i8* getelementptr inbounds ([4 x i8], [4 x i8]* @.str.1, i64 0, i64 0), i32* %2)
  store i32 0, i32* %4, align 4
  br label %19

19:                                               ; preds = %34, %17
  %20 = load i32, i32* %4, align 4
  %21 = load i32, i32* %2, align 4
  %22 = icmp slt i32 %20, %21
  br i1 %22, label %23, label %37

23:                                               ; preds = %19
  %24 = load i32, i32* %4, align 4
  %25 = sext i32 %24 to i64
  %26 = getelementptr inbounds [1000 x float], [1000 x float]* %6, i64 0, i64 %25
  %27 = call i32 (i8*, ...) @__isoc99_scanf(i8* getelementptr inbounds ([3 x i8], [3 x i8]* @.str.2, i64 0, i64 0), float* %26)
  %28 = load i32, i32* %4, align 4
  %29 = sext i32 %28 to i64
  %30 = getelementptr inbounds [1000 x float], [1000 x float]* %6, i64 0, i64 %29
  %31 = load float, float* %30, align 4
  %32 = load float, float* %5, align 4
  %33 = fadd float %32, %31
  store float %33, float* %5, align 4
  br label %34

34:                                               ; preds = %23
  %35 = load i32, i32* %4, align 4
  %36 = add nsw i32 %35, 1
  store i32 %36, i32* %4, align 4
  br label %19

37:                                               ; preds = %19
  %38 = load float, float* %5, align 4
  %39 = load i32, i32* %2, align 4
  %40 = sitofp i32 %39 to float
  %41 = fdiv float %38, %40
  %42 = fpext float %41 to double
  store double %42, double* %7, align 8
  store double 0.000000e+00, double* %10, align 8
  store i32 0, i32* %4, align 4
  br label %43

43:                                               ; preds = %66, %37
  %44 = load i32, i32* %4, align 4
  %45 = load i32, i32* %2, align 4
  %46 = icmp slt i32 %44, %45
  br i1 %46, label %47, label %69

47:                                               ; preds = %43
  %48 = load i32, i32* %4, align 4
  %49 = sext i32 %48 to i64
  %50 = getelementptr inbounds [1000 x float], [1000 x float]* %6, i64 0, i64 %49
  %51 = load float, float* %50, align 4
  %52 = fpext float %51 to double
  %53 = load double, double* %7, align 8
  %54 = fsub double %52, %53
  %55 = load i32, i32* %4, align 4
  %56 = sext i32 %55 to i64
  %57 = getelementptr inbounds [1000 x float], [1000 x float]* %6, i64 0, i64 %56
  %58 = load float, float* %57, align 4
  %59 = fpext float %58 to double
  %60 = load double, double* %7, align 8
  %61 = fsub double %59, %60
  %62 = fmul double %54, %61
  store double %62, double* %11, align 8
  %63 = load double, double* %11, align 8
  %64 = load double, double* %10, align 8
  %65 = fadd double %64, %63
  store double %65, double* %10, align 8
  br label %66

66:                                               ; preds = %47
  %67 = load i32, i32* %4, align 4
  %68 = add nsw i32 %67, 1
  store i32 %68, i32* %4, align 4
  br label %43

69:                                               ; preds = %43
  %70 = load double, double* %10, align 8
  %71 = load i32, i32* %2, align 4
  %72 = sitofp i32 %71 to double
  %73 = fdiv double %70, %72
  store double %73, double* %8, align 8
  %74 = load double, double* %8, align 8
  %75 = call double @sqrt(double %74) #3
  %76 = load i32, i32* %3, align 4
  %77 = sext i32 %76 to i64
  %78 = getelementptr inbounds [100 x double], [100 x double]* %9, i64 0, i64 %77
  store double %75, double* %78, align 8
  br label %79

79:                                               ; preds = %69
  %80 = load i32, i32* %3, align 4
  %81 = add nsw i32 %80, 1
  store i32 %81, i32* %3, align 4
  br label %13

82:                                               ; preds = %13
  store i32 0, i32* %3, align 4
  br label %83

83:                                               ; preds = %93, %82
  %84 = load i32, i32* %3, align 4
  %85 = load i32, i32* %1, align 4
  %86 = icmp slt i32 %84, %85
  br i1 %86, label %87, label %96

87:                                               ; preds = %83
  %88 = load i32, i32* %3, align 4
  %89 = sext i32 %88 to i64
  %90 = getelementptr inbounds [100 x double], [100 x double]* %9, i64 0, i64 %89
  %91 = load double, double* %90, align 8
  %92 = call i32 (i8*, ...) @printf(i8* getelementptr inbounds ([7 x i8], [7 x i8]* @.str.3, i64 0, i64 0), double %91)
  br label %93

93:                                               ; preds = %87
  %94 = load i32, i32* %3, align 4
  %95 = add nsw i32 %94, 1
  store i32 %95, i32* %3, align 4
  br label %83

96:                                               ; preds = %83
  ret void
}

declare dso_local i32 @__isoc99_scanf(i8*, ...) #1

; Function Attrs: nounwind
declare dso_local double @sqrt(double) #2

declare dso_local i32 @printf(i8*, ...) #1


!llvm.module.flags = !{!0}
!llvm.ident = !{!1}

!0 = !{i32 1, !"wchar_size", i32 4}
!1 = !{!"clang version 10.0.0-4ubuntu1 "}
